; Function Attrs: mustprogress uwtable
define internal void @"_ZNSt17_Function_handlerIFN5arrow6StatusERKNS0_5ArrayES4_S4_EZNS0_24MakeUnifiedDiffFormatterERKNS0_8DataTypeEPSoE3$_0E9_M_invokeERKSt9_Any_dataS4_S4_S4_"(ptr noalias nocapture writeonly sret(%"class.arrow::Status") align 8 %agg.result, ptr nocapture noundef nonnull readonly align 8 dereferenceable(16) %__functor, ptr nocapture nonnull readnone align 8 %__args, ptr nocapture noundef nonnull readonly align 8 dereferenceable(32) %__args1, ptr nocapture noundef nonnull readonly align 8 dereferenceable(32) %__args3) #0 align 2 {
entry:
  %call.val = load ptr, ptr %__functor, align 8
  tail call void @llvm.experimental.noalias.scope.decl(metadata !874)
  tail call void @llvm.experimental.noalias.scope.decl(metadata !877)
  tail call void @llvm.experimental.noalias.scope.decl(metadata !880)
  %data_.i.i.i.i = getelementptr inbounds i8, ptr %__args1, i64 8
  %0 = load ptr, ptr %data_.i.i.i.i, align 8, !noalias !883
  %length.i.i.i.i = getelementptr inbounds i8, ptr %0, i64 16
  %1 = load i64, ptr %length.i.i.i.i, align 8, !noalias !883
  %data_.i3.i.i.i = getelementptr inbounds i8, ptr %__args3, i64 8
  %2 = load ptr, ptr %data_.i3.i.i.i, align 8, !noalias !883
  %length.i4.i.i.i = getelementptr inbounds i8, ptr %2, i64 16
  %3 = load i64, ptr %length.i4.i.i.i, align 8, !noalias !883
  %cmp.not.i.i.i = icmp eq i64 %1, %3
  br i1 %cmp.not.i.i.i, label %"_ZSt10__invoke_rIN5arrow6StatusERZNS0_24MakeUnifiedDiffFormatterERKNS0_8DataTypeEPSoE3$_0JRKNS0_5ArrayESA_SA_EENSt9enable_ifIX16is_invocable_r_vIT_T0_DpT1_EESC_E4typeEOSD_DpOSE_.exit", label %if.then.i.i.i

if.then.i.i.i:                                    ; preds = %entry
  %call3.i.i.i = tail call noundef nonnull align 8 dereferenceable(8) ptr @_ZStlsISt11char_traitsIcEERSt13basic_ostreamIcT_ES5_PKc(ptr noundef nonnull align 8 dereferenceable(8) %call.val, ptr noundef nonnull @.str.43), !noalias !883
  %call4.i.i.i = tail call noundef nonnull align 8 dereferenceable(8) ptr @_ZNSolsEPFRSoS_E(ptr noundef nonnull align 8 dereferenceable(8) %call3.i.i.i, ptr noundef nonnull @_ZSt4endlIcSt11char_traitsIcEERSt13basic_ostreamIT_T0_ES6_), !noalias !883
  %call5.i.i.i = tail call noundef nonnull align 8 dereferenceable(8) ptr @_ZStlsISt11char_traitsIcEERSt13basic_ostreamIcT_ES5_PKc(ptr noundef nonnull align 8 dereferenceable(8) %call4.i.i.i, ptr noundef nonnull @.str.44), !noalias !883
  %4 = load ptr, ptr %data_.i.i.i.i, align 8, !noalias !883
  %length.i6.i.i.i = getelementptr inbounds i8, ptr %4, i64 16
  %5 = load i64, ptr %length.i6.i.i.i, align 8, !noalias !883
  %call7.i.i.i = tail call noundef nonnull align 8 dereferenceable(8) ptr @_ZNSolsEl(ptr noundef nonnull align 8 dereferenceable(8) %call5.i.i.i, i64 noundef %5), !noalias !883
  %call8.i.i.i = tail call noundef nonnull align 8 dereferenceable(8) ptr @_ZStlsISt11char_traitsIcEERSt13basic_ostreamIcT_ES5_PKc(ptr noundef nonnull align 8 dereferenceable(8) %call7.i.i.i, ptr noundef nonnull @.str.45), !noalias !883
  %call9.i.i.i = tail call noundef nonnull align 8 dereferenceable(8) ptr @_ZNSolsEPFRSoS_E(ptr noundef nonnull align 8 dereferenceable(8) %call8.i.i.i, ptr noundef nonnull @_ZSt4endlIcSt11char_traitsIcEERSt13basic_ostreamIT_T0_ES6_), !noalias !883
  %call10.i.i.i = tail call noundef nonnull align 8 dereferenceable(8) ptr @_ZStlsISt11char_traitsIcEERSt13basic_ostreamIcT_ES5_PKc(ptr noundef nonnull align 8 dereferenceable(8) %call9.i.i.i, ptr noundef nonnull @.str.46), !noalias !883
  %6 = load ptr, ptr %data_.i3.i.i.i, align 8, !noalias !883
  %length.i8.i.i.i = getelementptr inbounds i8, ptr %6, i64 16
  %7 = load i64, ptr %length.i8.i.i.i, align 8, !noalias !883
  %call12.i.i.i = tail call noundef nonnull align 8 dereferenceable(8) ptr @_ZNSolsEl(ptr noundef nonnull align 8 dereferenceable(8) %call10.i.i.i, i64 noundef %7), !noalias !883
  %call13.i.i.i = tail call noundef nonnull align 8 dereferenceable(8) ptr @_ZStlsISt11char_traitsIcEERSt13basic_ostreamIcT_ES5_PKc(ptr noundef nonnull align 8 dereferenceable(8) %call12.i.i.i, ptr noundef nonnull @.str.45), !noalias !883
  %call14.i.i.i = tail call noundef nonnull align 8 dereferenceable(8) ptr @_ZNSolsEPFRSoS_E(ptr noundef nonnull align 8 dereferenceable(8) %call13.i.i.i, ptr noundef nonnull @_ZSt4endlIcSt11char_traitsIcEERSt13basic_ostreamIT_T0_ES6_), !noalias !883
  br label %"_ZSt10__invoke_rIN5arrow6StatusERZNS0_24MakeUnifiedDiffFormatterERKNS0_8DataTypeEPSoE3$_0JRKNS0_5ArrayESA_SA_EENSt9enable_ifIX16is_invocable_r_vIT_T0_DpT1_EESC_E4typeEOSD_DpOSE_.exit"

"_ZSt10__invoke_rIN5arrow6StatusERZNS0_24MakeUnifiedDiffFormatterERKNS0_8DataTypeEPSoE3$_0JRKNS0_5ArrayESA_SA_EENSt9enable_ifIX16is_invocable_r_vIT_T0_DpT1_EESC_E4typeEOSD_DpOSE_.exit": ; preds = %entry, %if.then.i.i.i
  store ptr null, ptr %agg.result, align 8, !alias.scope !884
  ret void
}